target datalayout = "e-m:e-p270:32:32-p271:32:32-p272:64:64-i64:64-i128:128-f80:128-n8:16:32:64-S128"
target triple = "x86_64-pc-linux-gnu"

%struct.aiString = type { i32, [1024 x i8] }
%class.aiVector3t = type { float, float, float }
%struct.aiMaterial = type { ptr, i32, i32 }
%struct.aiMaterialProperty = type { %struct.aiString, i32, i32, i32, i32, ptr }

@.str.3 = private unnamed_addr constant [29 x i8] c"Nullptr to aiMaterial found.\00", align 1
@.str.4 = private unnamed_addr constant [13 x i8] c"$tex.mapaxis\00", align 1

; Function Attrs: mustprogress uwtable
define hidden void @_ZN6Assimp21MakeLeftHandedProcess15ProcessMaterialEP10aiMaterial(ptr noundef nonnull align 8 dereferenceable(24) %0, ptr noundef %1) #1 align 2 {
  %3 = alloca ptr, align 8
  %4 = alloca ptr, align 8
  %5 = alloca ptr, align 8
  %6 = alloca i32, align 4
  %7 = alloca ptr, align 8
  %8 = alloca ptr, align 8
  store ptr %0, ptr %3, align 8
  store ptr %1, ptr %4, align 8
  %9 = load ptr, ptr %4, align 8
  %10 = icmp eq ptr null, %9
  br i1 %10, label %11, label %13

11:                                               ; preds = %2
  %12 = call noundef ptr @_ZN6Assimp13DefaultLogger3getEv()
  call void @_ZN6Assimp6Logger5errorEPKc(ptr noundef nonnull align 8 dereferenceable(12) %12, ptr noundef @.str.3)
  br label %49

13:                                               ; preds = %2
  call void @llvm.lifetime.start.p0(i64 8, ptr %5) #12
  %14 = load ptr, ptr %4, align 8
  store ptr %14, ptr %5, align 8
  call void @llvm.lifetime.start.p0(i64 4, ptr %6) #12
  store i32 0, ptr %6, align 4
  br label %15

15:                                               ; preds = %45, %13
  %16 = load i32, ptr %6, align 4
  %17 = load ptr, ptr %5, align 8
  %18 = getelementptr inbounds nuw %struct.aiMaterial, ptr %17, i32 0, i32 1
  %19 = load i32, ptr %18, align 8
  %20 = icmp ult i32 %16, %19
  br i1 %20, label %22, label %21

21:                                               ; preds = %15
  call void @llvm.lifetime.end.p0(i64 4, ptr %6) #12
  br label %48

22:                                               ; preds = %15
  call void @llvm.lifetime.start.p0(i64 8, ptr %7) #12
  %23 = load ptr, ptr %5, align 8
  %24 = getelementptr inbounds nuw %struct.aiMaterial, ptr %23, i32 0, i32 0
  %25 = load ptr, ptr %24, align 8
  %26 = load i32, ptr %6, align 4
  %27 = zext i32 %26 to i64
  %28 = getelementptr inbounds nuw ptr, ptr %25, i64 %27
  %29 = load ptr, ptr %28, align 8
  store ptr %29, ptr %7, align 8
  %30 = load ptr, ptr %7, align 8
  %31 = getelementptr inbounds nuw %struct.aiMaterialProperty, ptr %30, i32 0, i32 0
  %32 = getelementptr inbounds nuw %struct.aiString, ptr %31, i32 0, i32 1
  %33 = getelementptr inbounds [1024 x i8], ptr %32, i64 0, i64 0
  %34 = call i32 @strcmp(ptr noundef %33, ptr noundef @.str.4) #13
  %35 = icmp ne i32 %34, 0
  br i1 %35, label %44, label %36

36:                                               ; preds = %22
  call void @llvm.lifetime.start.p0(i64 8, ptr %8) #12
  %37 = load ptr, ptr %7, align 8
  %38 = getelementptr inbounds nuw %struct.aiMaterialProperty, ptr %37, i32 0, i32 5
  %39 = load ptr, ptr %38, align 8
  store ptr %39, ptr %8, align 8
  %40 = load ptr, ptr %8, align 8
  %41 = getelementptr inbounds nuw %class.aiVector3t, ptr %40, i32 0, i32 2
  %42 = load float, ptr %41, align 4
  %43 = fmul float %42, -1.000000e+00
  store float %43, ptr %41, align 4
  call void @llvm.lifetime.end.p0(i64 8, ptr %8) #12
  br label %44

44:                                               ; preds = %36, %22
  call void @llvm.lifetime.end.p0(i64 8, ptr %7) #12
  br label %45

45:                                               ; preds = %44
  %46 = load i32, ptr %6, align 4
  %47 = add i32 %46, 1
  store i32 %47, ptr %6, align 4
  br label %15, !llvm.loop !15

48:                                               ; preds = %21
  call void @llvm.lifetime.end.p0(i64 8, ptr %5) #12
  br label %49

49:                                               ; preds = %48, %11
  ret void
}