; Function Attrs: mustprogress uwtable
define hidden void @_ZN6Assimp21MakeLeftHandedProcess15ProcessMaterialEP10aiMaterial(ptr noundef nonnull readnone align 8 captures(none) dereferenceable(24) %0, ptr noundef readonly captures(address_is_null) %1) local_unnamed_addr #5 align 2 {
  %3 = icmp eq ptr %1, null
  br i1 %3, label %6, label %.preheader

.preheader:                                       ; preds = %2
  %4 = getelementptr inbounds nuw i8, ptr %1, i64 8
  %5 = load i32, ptr %4, align 8
  %.not11 = icmp eq i32 %5, 0
  br i1 %.not11, label %.loopexit, label %.lr.ph

6:                                                ; preds = %2
  %7 = tail call noundef ptr @_ZN6Assimp13DefaultLogger3getEv()
  tail call void @_ZN6Assimp6Logger5errorEPKc(ptr noundef nonnull align 8 dereferenceable(12) %7, ptr noundef nonnull @.str.3)
  br label %.loopexit

.lr.ph:                                           ; preds = %.preheader, %20
  %8 = phi i32 [ %21, %20 ], [ %5, %.preheader ]
  %indvars.iv = phi i64 [ %indvars.iv.next, %20 ], [ 0, %.preheader ]
  %9 = load ptr, ptr %1, align 8
  %10 = getelementptr inbounds nuw ptr, ptr %9, i64 %indvars.iv
  %11 = load ptr, ptr %10, align 8
  %12 = getelementptr inbounds nuw i8, ptr %11, i64 4
  %13 = tail call i32 @strcmp(ptr noundef nonnull dereferenceable(1) %12, ptr noundef nonnull dereferenceable(13) @.str.4) #16
  %.not = icmp eq i32 %13, 0
  br i1 %.not, label %14, label %20

14:                                               ; preds = %.lr.ph
  %15 = getelementptr inbounds nuw i8, ptr %11, i64 1048
  %16 = load ptr, ptr %15, align 8
  %17 = getelementptr inbounds nuw i8, ptr %16, i64 8
  %18 = load float, ptr %17, align 4
  %19 = fneg float %18
  store float %19, ptr %17, align 4
  %.pre = load i32, ptr %4, align 8
  br label %20

20:                                               ; preds = %14, %.lr.ph
  %21 = phi i32 [ %.pre, %14 ], [ %8, %.lr.ph ]
  %indvars.iv.next = add nuw nsw i64 %indvars.iv, 1
  %22 = zext i32 %21 to i64
  %23 = icmp samesign ult i64 %indvars.iv.next, %22
  br i1 %23, label %.lr.ph, label %.loopexit, !llvm.loop !5

.loopexit:                                        ; preds = %20, %.preheader, %6
  ret void
}